target datalayout = "e-m:e-p270:32:32-p271:32:32-p272:64:64-i64:64-i128:128-f80:128-n8:16:32:64-S128"
target triple = "x86_64-pc-linux-gnu"

%struct.H5PB_t = type { i64, i64, i32, i32, i32, i32, i32, i32, ptr, ptr, i64, ptr, ptr, ptr, [2 x i32], [2 x i32], [2 x i32], [2 x i32], [2 x i32] }
%struct.H5F_shared_t = type { ptr, ptr, ptr, i8, i32, i32, %struct.H5F_mtab_t, ptr, i8, i8, i64, i32, i32, i64, i64, ptr, ptr, %struct.H5AC_cache_config_t, %struct.H5AC_cache_image_config_t, i8, i8, ptr, i64, i32, i8, i64, i64, double, i64, i64, i64, i32, i32, i32, i8, i32, ptr, ptr, ptr, ptr, i8, i8, i8, i64, ptr, ptr, i32, i64, i8, i32, i8, i64, i8, [13 x i32], [13 x i64], [13 x ptr], i8, i64, i64, [7 x i32], [7 x i32], %struct.H5F_blk_aggr_t, %struct.H5F_blk_aggr_t, i64, i64, %struct.H5F_meta_accum_t, i32, i32, [30 x ptr], %struct.H5F_object_flush_t, i8, ptr }
%struct.H5F_mtab_t = type { i32, i32, ptr }
%struct.H5AC_cache_config_t = type { i32, i8, i8, i8, [1025 x i8], i8, i8, i64, double, i64, i64, i64, i32, double, double, i8, i64, i32, double, double, i32, double, double, i8, i64, i32, i8, double, i64, i32 }
%struct.H5AC_cache_image_config_t = type { i32, i8, i8, i32 }
%struct.H5F_blk_aggr_t = type { i64, i64, i64, i64, i64 }
%struct.H5F_meta_accum_t = type { ptr, i64, i64, i64, i64, i64, i8 }
%struct.H5F_object_flush_t = type { ptr, ptr }
%struct.H5PB_entry_t = type { ptr, i64, i32, i8, ptr, ptr }

@H5PB_init_g = global i8 0, align 1
@H5_libterm_g = external global i8, align 1
@.str.10 = private unnamed_addr constant [98 x i8] c"generated/home/dtcxzyw/WorkSpace/Projects/compilers/llvm-opt-benchmark/bench/hdf5/hdf5/src/H5PB.c\00", align 1
@H5E_BADVALUE_g = external global i64, align 8
@__func__.H5PB_remove_entry = private unnamed_addr constant [18 x i8] c"H5PB_remove_entry\00", align 1
@H5E_CACHE_g = external global i64, align 8
@.str.21 = private unnamed_addr constant [31 x i8] c"Page Entry is not in skip list\00", align 1
@H5_H5PB_entry_t_reg_free_list = internal global { i8, [3 x i8], i32, i32, [4 x i8], ptr, i64, ptr } { i8 0, [3 x i8] zeroinitializer, i32 0, i32 0, [4 x i8] zeroinitializer, ptr @.str.36, i64 40, ptr null }, align 8

; Function Attrs: nounwind uwtable
define i32 @H5PB_remove_entry(ptr noundef %0, i64 noundef %1) #0 {
  %3 = alloca ptr, align 8
  %4 = alloca i64, align 8
  %5 = alloca ptr, align 8
  %6 = alloca ptr, align 8
  %7 = alloca i32, align 4
  %8 = alloca i8, align 1
  store ptr %0, ptr %3, align 8, !tbaa !16
  store i64 %1, ptr %4, align 8, !tbaa !18
  call void @llvm.lifetime.start.p0(i64 8, ptr %5) #6
  call void @llvm.lifetime.start.p0(i64 8, ptr %6) #6
  store ptr null, ptr %6, align 8, !tbaa !56
  call void @llvm.lifetime.start.p0(i64 4, ptr %7) #6
  store i32 0, ptr %7, align 4, !tbaa !12
  call void @llvm.lifetime.start.p0(i64 1, ptr %8) #6
  store i8 0, ptr %8, align 1, !tbaa !8
  %9 = load i8, ptr @H5PB_init_g, align 1, !tbaa !8, !range !10, !noundef !11
  %10 = trunc i8 %9 to i1
  br i1 %10, label %15, label %11

11:                                               ; preds = %2
  %12 = load i8, ptr @H5_libterm_g, align 1, !tbaa !8, !range !10, !noundef !11
  %13 = trunc i8 %12 to i1
  %14 = xor i1 %13, true
  br label %15

15:                                               ; preds = %11, %2
  %16 = phi i1 [ false, %2 ], [ %14, %11 ]
  %17 = xor i1 %16, true
  %18 = xor i1 %17, true
  %19 = zext i1 %18 to i32
  %20 = sext i32 %19 to i64
  %21 = call i64 @llvm.expect.i64(i64 %20, i64 0)
  %22 = icmp ne i64 %21, 0
  br i1 %22, label %23, label %24

23:                                               ; preds = %15
  store i8 1, ptr @H5PB_init_g, align 1, !tbaa !8
  br label %24

24:                                               ; preds = %23, %15
  %25 = load i8, ptr @H5PB_init_g, align 1, !tbaa !8, !range !10, !noundef !11
  %26 = trunc i8 %25 to i1
  br i1 %26, label %31, label %27

27:                                               ; preds = %24
  %28 = load i8, ptr @H5_libterm_g, align 1, !tbaa !8, !range !10, !noundef !11
  %29 = trunc i8 %28 to i1
  %30 = xor i1 %29, true
  br label %31

31:                                               ; preds = %27, %24
  %32 = phi i1 [ true, %24 ], [ %30, %27 ]
  %33 = xor i1 %32, true
  %34 = xor i1 %33, true
  %35 = zext i1 %34 to i32
  %36 = sext i32 %35 to i64
  %37 = call i64 @llvm.expect.i64(i64 %36, i64 1)
  %38 = icmp ne i64 %37, 0
  br i1 %38, label %39, label %162

39:                                               ; preds = %31
  %40 = load ptr, ptr %3, align 8, !tbaa !16
  %41 = getelementptr inbounds nuw %struct.H5F_shared_t, ptr %40, i32 0, i32 15
  %42 = load ptr, ptr %41, align 8, !tbaa !54
  store ptr %42, ptr %5, align 8, !tbaa !3
  %43 = load ptr, ptr %5, align 8, !tbaa !3
  %44 = getelementptr inbounds nuw %struct.H5PB_t, ptr %43, i32 0, i32 8
  %45 = load ptr, ptr %44, align 8, !tbaa !51
  %46 = call ptr @H5SL_search(ptr noundef %45, ptr noundef %4)
  store ptr %46, ptr %6, align 8, !tbaa !56
  %47 = load ptr, ptr %6, align 8, !tbaa !56
  %48 = icmp ne ptr %47, null
  br i1 %48, label %49, label %160

49:                                               ; preds = %39
  %50 = load ptr, ptr %5, align 8, !tbaa !3
  %51 = getelementptr inbounds nuw %struct.H5PB_t, ptr %50, i32 0, i32 8
  %52 = load ptr, ptr %51, align 8, !tbaa !51
  %53 = load ptr, ptr %6, align 8, !tbaa !56
  %54 = getelementptr inbounds nuw %struct.H5PB_entry_t, ptr %53, i32 0, i32 1
  %55 = call ptr @H5SL_remove(ptr noundef %52, ptr noundef %54)
  %56 = icmp eq ptr null, %55
  br i1 %56, label %57, label %76

57:                                               ; preds = %49
  br label %58

58:                                               ; preds = %57
  br label %59

59:                                               ; preds = %58
  br label %60

60:                                               ; preds = %59
  %61 = load i64, ptr @H5E_CACHE_g, align 8, !tbaa !18
  %62 = load i64, ptr @H5E_BADVALUE_g, align 8, !tbaa !18
  %63 = call i32 (ptr, ptr, i32, i64, i64, ptr, ...) @H5E_printf_stack(ptr noundef @.str.10, ptr noundef @__func__.H5PB_remove_entry, i32 noundef 625, i64 noundef %61, i64 noundef %62, ptr noundef @.str.21)
  br label %64

64:                                               ; preds = %60
  br label %65

65:                                               ; preds = %64
  store i8 1, ptr %8, align 1, !tbaa !8
  %66 = load i8, ptr %8, align 1, !tbaa !8, !range !10, !noundef !11
  %67 = trunc i8 %66 to i1
  %68 = zext i1 %67 to i8
  store i8 %68, ptr %8, align 1, !tbaa !8
  br label %69

69:                                               ; preds = %65
  br label %70

70:                                               ; preds = %69
  br label %71

71:                                               ; preds = %70
  store i32 -1, ptr %7, align 4, !tbaa !12
  br label %161

72:                                               ; No predecessors!
  br label %73

73:                                               ; preds = %72
  br label %74

74:                                               ; preds = %73
  br label %75

75:                                               ; preds = %74
  br label %76

76:                                               ; preds = %75, %49
  %77 = load ptr, ptr %5, align 8, !tbaa !3
  %78 = getelementptr inbounds nuw %struct.H5PB_t, ptr %77, i32 0, i32 11
  %79 = load ptr, ptr %78, align 8, !tbaa !62
  %80 = load ptr, ptr %6, align 8, !tbaa !56
  %81 = icmp eq ptr %79, %80
  br i1 %81, label %82, label %98

82:                                               ; preds = %76
  %83 = load ptr, ptr %6, align 8, !tbaa !56
  %84 = getelementptr inbounds nuw %struct.H5PB_entry_t, ptr %83, i32 0, i32 4
  %85 = load ptr, ptr %84, align 8, !tbaa !63
  %86 = load ptr, ptr %5, align 8, !tbaa !3
  %87 = getelementptr inbounds nuw %struct.H5PB_t, ptr %86, i32 0, i32 11
  store ptr %85, ptr %87, align 8, !tbaa !62
  %88 = load ptr, ptr %5, align 8, !tbaa !3
  %89 = getelementptr inbounds nuw %struct.H5PB_t, ptr %88, i32 0, i32 11
  %90 = load ptr, ptr %89, align 8, !tbaa !62
  %91 = icmp ne ptr %90, null
  br i1 %91, label %92, label %97

92:                                               ; preds = %82
  %93 = load ptr, ptr %5, align 8, !tbaa !3
  %94 = getelementptr inbounds nuw %struct.H5PB_t, ptr %93, i32 0, i32 11
  %95 = load ptr, ptr %94, align 8, !tbaa !62
  %96 = getelementptr inbounds nuw %struct.H5PB_entry_t, ptr %95, i32 0, i32 5
  store ptr null, ptr %96, align 8, !tbaa !64
  br label %97

97:                                               ; preds = %92, %82
  br label %106

98:                                               ; preds = %76
  %99 = load ptr, ptr %6, align 8, !tbaa !56
  %100 = getelementptr inbounds nuw %struct.H5PB_entry_t, ptr %99, i32 0, i32 4
  %101 = load ptr, ptr %100, align 8, !tbaa !63
  %102 = load ptr, ptr %6, align 8, !tbaa !56
  %103 = getelementptr inbounds nuw %struct.H5PB_entry_t, ptr %102, i32 0, i32 5
  %104 = load ptr, ptr %103, align 8, !tbaa !64
  %105 = getelementptr inbounds nuw %struct.H5PB_entry_t, ptr %104, i32 0, i32 4
  store ptr %101, ptr %105, align 8, !tbaa !63
  br label %106

106:                                              ; preds = %98, %97
  %107 = load ptr, ptr %5, align 8, !tbaa !3
  %108 = getelementptr inbounds nuw %struct.H5PB_t, ptr %107, i32 0, i32 12
  %109 = load ptr, ptr %108, align 8, !tbaa !65
  %110 = load ptr, ptr %6, align 8, !tbaa !56
  %111 = icmp eq ptr %109, %110
  br i1 %111, label %112, label %128

112:                                              ; preds = %106
  %113 = load ptr, ptr %6, align 8, !tbaa !56
  %114 = getelementptr inbounds nuw %struct.H5PB_entry_t, ptr %113, i32 0, i32 5
  %115 = load ptr, ptr %114, align 8, !tbaa !64
  %116 = load ptr, ptr %5, align 8, !tbaa !3
  %117 = getelementptr inbounds nuw %struct.H5PB_t, ptr %116, i32 0, i32 12
  store ptr %115, ptr %117, align 8, !tbaa !65
  %118 = load ptr, ptr %5, align 8, !tbaa !3
  %119 = getelementptr inbounds nuw %struct.H5PB_t, ptr %118, i32 0, i32 12
  %120 = load ptr, ptr %119, align 8, !tbaa !65
  %121 = icmp ne ptr %120, null
  br i1 %121, label %122, label %127

122:                                              ; preds = %112
  %123 = load ptr, ptr %5, align 8, !tbaa !3
  %124 = getelementptr inbounds nuw %struct.H5PB_t, ptr %123, i32 0, i32 12
  %125 = load ptr, ptr %124, align 8, !tbaa !65
  %126 = getelementptr inbounds nuw %struct.H5PB_entry_t, ptr %125, i32 0, i32 4
  store ptr null, ptr %126, align 8, !tbaa !63
  br label %127

127:                                              ; preds = %122, %112
  br label %136

128:                                              ; preds = %106
  %129 = load ptr, ptr %6, align 8, !tbaa !56
  %130 = getelementptr inbounds nuw %struct.H5PB_entry_t, ptr %129, i32 0, i32 5
  %131 = load ptr, ptr %130, align 8, !tbaa !64
  %132 = load ptr, ptr %6, align 8, !tbaa !56
  %133 = getelementptr inbounds nuw %struct.H5PB_entry_t, ptr %132, i32 0, i32 4
  %134 = load ptr, ptr %133, align 8, !tbaa !63
  %135 = getelementptr inbounds nuw %struct.H5PB_entry_t, ptr %134, i32 0, i32 5
  store ptr %131, ptr %135, align 8, !tbaa !64
  br label %136

136:                                              ; preds = %128, %127
  %137 = load ptr, ptr %6, align 8, !tbaa !56
  %138 = getelementptr inbounds nuw %struct.H5PB_entry_t, ptr %137, i32 0, i32 4
  store ptr null, ptr %138, align 8, !tbaa !63
  %139 = load ptr, ptr %6, align 8, !tbaa !56
  %140 = getelementptr inbounds nuw %struct.H5PB_entry_t, ptr %139, i32 0, i32 5
  store ptr null, ptr %140, align 8, !tbaa !64
  %141 = load ptr, ptr %5, align 8, !tbaa !3
  %142 = getelementptr inbounds nuw %struct.H5PB_t, ptr %141, i32 0, i32 10
  %143 = load i64, ptr %142, align 8, !tbaa !66
  %144 = add i64 %143, -1
  store i64 %144, ptr %142, align 8, !tbaa !66
  %145 = load ptr, ptr %5, align 8, !tbaa !3
  %146 = getelementptr inbounds nuw %struct.H5PB_t, ptr %145, i32 0, i32 4
  %147 = load i32, ptr %146, align 8, !tbaa !70
  %148 = add i32 %147, -1
  store i32 %148, ptr %146, align 8, !tbaa !70
  %149 = load ptr, ptr %5, align 8, !tbaa !3
  %150 = getelementptr inbounds nuw %struct.H5PB_t, ptr %149, i32 0, i32 13
  %151 = load ptr, ptr %150, align 8, !tbaa !53
  %152 = load ptr, ptr %6, align 8, !tbaa !56
  %153 = getelementptr inbounds nuw %struct.H5PB_entry_t, ptr %152, i32 0, i32 0
  %154 = load ptr, ptr %153, align 8, !tbaa !67
  %155 = call ptr @H5FL_fac_free(ptr noundef %151, ptr noundef %154)
  %156 = load ptr, ptr %6, align 8, !tbaa !56
  %157 = getelementptr inbounds nuw %struct.H5PB_entry_t, ptr %156, i32 0, i32 0
  store ptr %155, ptr %157, align 8, !tbaa !67
  %158 = load ptr, ptr %6, align 8, !tbaa !56
  %159 = call ptr @H5FL_reg_free(ptr noundef @H5_H5PB_entry_t_reg_free_list, ptr noundef %158)
  store ptr %159, ptr %6, align 8, !tbaa !56
  br label %160

160:                                              ; preds = %136, %39
  br label %161

161:                                              ; preds = %160, %71
  br label %162

162:                                              ; preds = %161, %31
  %163 = load i32, ptr %7, align 4, !tbaa !12
  call void @llvm.lifetime.end.p0(i64 1, ptr %8) #6
  call void @llvm.lifetime.end.p0(i64 4, ptr %7) #6
  call void @llvm.lifetime.end.p0(i64 8, ptr %6) #6
  call void @llvm.lifetime.end.p0(i64 8, ptr %5) #6
  ret i32 %163
}