; Function Attrs: nounwind uwtable
define range(i32 -1, 1) i32 @H5PB_remove_entry(ptr noundef readonly captures(none) %0, i64 noundef %1) local_unnamed_addr #4 {
  %3 = alloca i64, align 8
  store i64 %1, ptr %3, align 8, !tbaa !37
  %4 = load i8, ptr @H5PB_init_g, align 1, !tbaa !3, !range !7, !noundef !8
  %5 = trunc nuw i8 %4 to i1
  %6 = load i8, ptr @H5_libterm_g, align 1, !range !7
  %7 = trunc nuw i8 %6 to i1
  %8 = select i1 %5, i1 true, i1 %7
  br i1 %8, label %9, label %.thread, !prof !9

.thread:                                          ; preds = %2
  store i8 1, ptr @H5PB_init_g, align 1, !tbaa !3
  br label %12

9:                                                ; preds = %2
  %10 = xor i1 %7, true
  %11 = select i1 %5, i1 true, i1 %10
  br i1 %11, label %12, label %65, !prof !10

12:                                               ; preds = %.thread, %9
  %13 = getelementptr inbounds nuw i8, ptr %0, i64 104
  %14 = load ptr, ptr %13, align 8, !tbaa !51
  %15 = getelementptr inbounds nuw i8, ptr %14, i64 40
  %16 = load ptr, ptr %15, align 8, !tbaa !48
  %17 = call ptr @H5SL_search(ptr noundef %16, ptr noundef nonnull %3) #10
  %.not = icmp eq ptr %17, null
  br i1 %.not, label %65, label %18

18:                                               ; preds = %12
  %19 = load ptr, ptr %15, align 8, !tbaa !48
  %20 = getelementptr inbounds nuw i8, ptr %17, i64 8
  %21 = call ptr @H5SL_remove(ptr noundef %19, ptr noundef nonnull %20) #10
  %22 = icmp eq ptr %21, null
  br i1 %22, label %23, label %27

23:                                               ; preds = %18
  %24 = load i64, ptr @H5E_CACHE_g, align 8, !tbaa !37
  %25 = load i64, ptr @H5E_BADVALUE_g, align 8, !tbaa !37
  %26 = call i32 (ptr, ptr, i32, i64, i64, ptr, ...) @H5E_printf_stack(ptr noundef nonnull @.str.10, ptr noundef nonnull @__func__.H5PB_remove_entry, i32 noundef 625, i64 noundef %24, i64 noundef %25, ptr noundef nonnull @.str.21) #10
  br label %65

27:                                               ; preds = %18
  %28 = getelementptr inbounds nuw i8, ptr %14, i64 64
  %29 = load ptr, ptr %28, align 8, !tbaa !57
  %30 = icmp eq ptr %29, %17
  %31 = getelementptr inbounds nuw i8, ptr %17, i64 24
  %32 = load ptr, ptr %31, align 8, !tbaa !58
  br i1 %30, label %33, label %36

33:                                               ; preds = %27
  store ptr %32, ptr %28, align 8, !tbaa !57
  %.not33 = icmp eq ptr %32, null
  br i1 %.not33, label %40, label %34

34:                                               ; preds = %33
  %35 = getelementptr inbounds nuw i8, ptr %32, i64 32
  store ptr null, ptr %35, align 8, !tbaa !59
  br label %40

36:                                               ; preds = %27
  %37 = getelementptr inbounds nuw i8, ptr %17, i64 32
  %38 = load ptr, ptr %37, align 8, !tbaa !59
  %39 = getelementptr inbounds nuw i8, ptr %38, i64 24
  store ptr %32, ptr %39, align 8, !tbaa !58
  br label %40

40:                                               ; preds = %33, %34, %36
  %41 = phi ptr [ null, %33 ], [ %32, %34 ], [ %32, %36 ]
  %42 = getelementptr inbounds nuw i8, ptr %14, i64 72
  %43 = load ptr, ptr %42, align 8, !tbaa !60
  %44 = icmp eq ptr %43, %17
  %45 = getelementptr inbounds nuw i8, ptr %17, i64 32
  %46 = load ptr, ptr %45, align 8, !tbaa !59
  br i1 %44, label %47, label %50

47:                                               ; preds = %40
  store ptr %46, ptr %42, align 8, !tbaa !60
  %.not34 = icmp eq ptr %46, null
  br i1 %.not34, label %52, label %48

48:                                               ; preds = %47
  %49 = getelementptr inbounds nuw i8, ptr %46, i64 24
  store ptr null, ptr %49, align 8, !tbaa !58
  br label %52

50:                                               ; preds = %40
  %51 = getelementptr inbounds nuw i8, ptr %41, i64 32
  store ptr %46, ptr %51, align 8, !tbaa !59
  br label %52

52:                                               ; preds = %47, %48, %50
  %53 = getelementptr inbounds nuw i8, ptr %17, i64 24
  %54 = getelementptr inbounds nuw i8, ptr %14, i64 56
  call void @llvm.memset.p0.i64(ptr noundef nonnull align 8 dereferenceable(16) %53, i8 0, i64 16, i1 false)
  %55 = load i64, ptr %54, align 8, !tbaa !61
  %56 = add i64 %55, -1
  store i64 %56, ptr %54, align 8, !tbaa !61
  %57 = getelementptr inbounds nuw i8, ptr %14, i64 24
  %58 = load i32, ptr %57, align 8, !tbaa !65
  %59 = add i32 %58, -1
  store i32 %59, ptr %57, align 8, !tbaa !65
  %60 = getelementptr inbounds nuw i8, ptr %14, i64 80
  %61 = load ptr, ptr %60, align 8, !tbaa !50
  %62 = load ptr, ptr %17, align 8, !tbaa !62
  %63 = call ptr @H5FL_fac_free(ptr noundef %61, ptr noundef %62) #10
  store ptr %63, ptr %17, align 8, !tbaa !62
  %64 = call ptr @H5FL_reg_free(ptr noundef nonnull @H5_H5PB_entry_t_reg_free_list, ptr noundef nonnull %17) #10
  br label %65

65:                                               ; preds = %23, %52, %12, %9
  %.0 = phi i32 [ -1, %23 ], [ 0, %52 ], [ 0, %12 ], [ 0, %9 ]
  ret i32 %.0
}